; Function Attrs: nounwind uwtable
define hidden range(i32 0, 2) i32 @CBB_add_space(ptr noundef captures(none) %0, ptr noundef writeonly captures(address_is_null) %1, i64 noundef %2) local_unnamed_addr #8 {
  %4 = tail call i32 @CBB_flush(ptr noundef %0)
  %.not = icmp eq i32 %4, 0
  br i1 %.not, label %32, label %5

5:                                                ; preds = %3
  %6 = load ptr, ptr %0, align 8, !tbaa !16
  %7 = icmp eq ptr %6, null
  br i1 %7, label %32, label %8

8:                                                ; preds = %5
  %9 = getelementptr inbounds nuw i8, ptr %6, i64 8
  %10 = load i64, ptr %9, align 8, !tbaa !13
  %11 = add i64 %10, %2
  %12 = icmp ult i64 %11, %10
  br i1 %12, label %32, label %13

13:                                               ; preds = %8
  %14 = getelementptr inbounds nuw i8, ptr %6, i64 16
  %15 = load i64, ptr %14, align 8, !tbaa !14
  %16 = icmp ugt i64 %11, %15
  br i1 %16, label %17, label %27

17:                                               ; preds = %13
  %18 = getelementptr inbounds nuw i8, ptr %6, i64 24
  %19 = load i8, ptr %18, align 8, !tbaa !15
  %.not.i.i = icmp eq i8 %19, 0
  br i1 %.not.i.i, label %32, label %20

20:                                               ; preds = %17
  %21 = shl i64 %15, 1
  %22 = icmp slt i64 %15, 0
  %23 = tail call i64 @llvm.umax.i64(i64 %21, i64 %11)
  %.026.i.i = select i1 %22, i64 %11, i64 %23
  %24 = load ptr, ptr %6, align 8, !tbaa !6
  %25 = tail call ptr @realloc(ptr noundef %24, i64 noundef %.026.i.i) #16
  %26 = icmp eq ptr %25, null
  br i1 %26, label %32, label %.critedge.i.i

.critedge.i.i:                                    ; preds = %20
  store ptr %25, ptr %6, align 8, !tbaa !6
  store i64 %.026.i.i, ptr %14, align 8, !tbaa !14
  %.pre.pre.i = load i64, ptr %9, align 8, !tbaa !13
  br label %27

27:                                               ; preds = %.critedge.i.i, %13
  %.pre.i = phi i64 [ %.pre.pre.i, %.critedge.i.i ], [ %10, %13 ]
  %.not34.i.i = icmp eq ptr %1, null
  br i1 %.not34.i.i, label %cbb_buffer_add.exit, label %28

28:                                               ; preds = %27
  %29 = load ptr, ptr %6, align 8, !tbaa !6
  %30 = getelementptr inbounds nuw i8, ptr %29, i64 %.pre.i
  store ptr %30, ptr %1, align 8, !tbaa !21
  br label %cbb_buffer_add.exit

cbb_buffer_add.exit:                              ; preds = %27, %28
  %31 = add i64 %.pre.i, %2
  store i64 %31, ptr %9, align 8, !tbaa !13
  br label %32

32:                                               ; preds = %cbb_buffer_add.exit, %5, %8, %20, %17, %3
  %.0 = phi i32 [ 0, %3 ], [ 1, %cbb_buffer_add.exit ], [ 0, %5 ], [ 0, %8 ], [ 0, %20 ], [ 0, %17 ]
  ret i32 %.0
}